; ModuleID = 'source-C-CXX/57/959.c'
source_filename = "source-C-CXX/57/959.c"
target datalayout = "e-m:e-p270:32:32-p271:32:32-p272:64:64-i64:64-f80:128-n8:16:32:64-S128"
target triple = "x86_64-pc-linux-gnu"

%struct._IO_FILE = type { i32, i8*, i8*, i8*, i8*, i8*, i8*, i8*, i8*, i8*, i8*, i8*, %struct._IO_marker*, %struct._IO_FILE*, i32, i32, i64, i16, i8, [1 x i8], i8*, i64, %struct._IO_codecvt*, %struct._IO_wide_data*, %struct._IO_FILE*, i8*, i64, i32, [20 x i8] }
%struct._IO_marker = type opaque
%struct._IO_codecvt = type opaque
%struct._IO_wide_data = type opaque

@.str = private unnamed_addr constant [3 x i8] c"%d\00", align 1
@stdin = external local_unnamed_addr global %struct._IO_FILE*, align 8
@str = private unnamed_addr constant [2 x i8] c"0\00", align 1
@str.3 = private unnamed_addr constant [2 x i8] c"1\00", align 1

; Function Attrs: nounwind sspstrong uwtable
define dso_local void @main() local_unnamed_addr #0 {
  %1 = alloca i32, align 4
  %2 = alloca [10000 x [81 x i8]], align 16
  %3 = bitcast i32* %1 to i8*
  call void @llvm.lifetime.start.p0i8(i64 4, i8* nonnull %3) #5
  %4 = call i32 (i8*, ...) @__isoc99_scanf(i8* getelementptr inbounds ([3 x i8], [3 x i8]* @.str, i64 0, i64 0), i32* nonnull %1)
  %5 = getelementptr inbounds [10000 x [81 x i8]], [10000 x [81 x i8]]* %2, i64 0, i64 0, i64 0
  call void @llvm.lifetime.start.p0i8(i64 810000, i8* nonnull %5) #5
  %6 = load %struct._IO_FILE*, %struct._IO_FILE** @stdin, align 8, !tbaa !5
  %7 = call i32 @getc(%struct._IO_FILE* %6) #5
  %8 = load i32, i32* %1, align 4, !tbaa !9
  %9 = icmp sgt i32 %8, 0
  br i1 %9, label %12, label %62

10:                                               ; preds = %12
  %11 = icmp sgt i32 %17, 0
  br i1 %11, label %20, label %62

12:                                               ; preds = %0, %12
  %13 = phi i64 [ %16, %12 ], [ 0, %0 ]
  %14 = getelementptr inbounds [10000 x [81 x i8]], [10000 x [81 x i8]]* %2, i64 0, i64 %13, i64 0
  %15 = call i32 (i8*, ...) bitcast (i32 (...)* @gets to i32 (i8*, ...)*)(i8* nonnull %14) #5
  %16 = add nuw nsw i64 %13, 1
  %17 = load i32, i32* %1, align 4, !tbaa !9
  %18 = sext i32 %17 to i64
  %19 = icmp slt i64 %16, %18
  br i1 %19, label %12, label %10, !llvm.loop !11

20:                                               ; preds = %10, %52
  %21 = phi i64 [ %58, %52 ], [ 0, %10 ]
  %22 = getelementptr inbounds [10000 x [81 x i8]], [10000 x [81 x i8]]* %2, i64 0, i64 %21, i64 0
  %23 = load i8, i8* %22, align 1, !tbaa !13
  %24 = icmp eq i8 %23, 95
  %25 = and i8 %23, -33
  %26 = add i8 %25, -65
  %27 = icmp ult i8 %26, 26
  %28 = or i1 %27, %24
  %29 = icmp eq i8 %23, 0
  br i1 %29, label %52, label %30

30:                                               ; preds = %20, %46
  %31 = phi i64 [ %48, %46 ], [ 0, %20 ]
  %32 = phi i8 [ %50, %46 ], [ %23, %20 ]
  %33 = phi i32 [ %47, %46 ], [ 0, %20 ]
  %34 = add i8 %32, -48
  %35 = icmp ult i8 %34, 10
  br i1 %35, label %46, label %36

36:                                               ; preds = %30
  %37 = add i8 %32, -65
  %38 = icmp ult i8 %37, 26
  %39 = icmp eq i8 %32, 95
  %40 = or i1 %39, %38
  br i1 %40, label %46, label %41

41:                                               ; preds = %36
  %42 = add i8 %32, -97
  %43 = icmp ugt i8 %42, 25
  %44 = zext i1 %43 to i32
  %45 = add nsw i32 %33, %44
  br label %46

46:                                               ; preds = %41, %30, %36
  %47 = phi i32 [ %33, %36 ], [ %33, %30 ], [ %45, %41 ]
  %48 = add nuw i64 %31, 1
  %49 = getelementptr inbounds [10000 x [81 x i8]], [10000 x [81 x i8]]* %2, i64 0, i64 %21, i64 %48
  %50 = load i8, i8* %49, align 1, !tbaa !13
  %51 = icmp eq i8 %50, 0
  br i1 %51, label %52, label %30, !llvm.loop !14

52:                                               ; preds = %46, %20
  %53 = phi i32 [ 0, %20 ], [ %47, %46 ]
  %54 = icmp eq i32 %53, 0
  %55 = select i1 %28, i1 %54, i1 false
  %56 = select i1 %55, i8* getelementptr inbounds ([2 x i8], [2 x i8]* @str.3, i64 0, i64 0), i8* getelementptr inbounds ([2 x i8], [2 x i8]* @str, i64 0, i64 0)
  %57 = call i32 @puts(i8* nonnull dereferenceable(1) %56)
  %58 = add nuw nsw i64 %21, 1
  %59 = load i32, i32* %1, align 4, !tbaa !9
  %60 = sext i32 %59 to i64
  %61 = icmp slt i64 %58, %60
  br i1 %61, label %20, label %62, !llvm.loop !15

62:                                               ; preds = %52, %0, %10
  call void @llvm.lifetime.end.p0i8(i64 810000, i8* nonnull %5) #5
  call void @llvm.lifetime.end.p0i8(i64 4, i8* nonnull %3) #5
  ret void
}

; Function Attrs: argmemonly mustprogress nofree nosync nounwind willreturn
declare void @llvm.lifetime.start.p0i8(i64 immarg, i8* nocapture) #1

; Function Attrs: nofree nounwind
declare noundef i32 @__isoc99_scanf(i8* nocapture noundef readonly, ...) local_unnamed_addr #2

declare i32 @gets(...) local_unnamed_addr #3

; Function Attrs: argmemonly mustprogress nofree nosync nounwind willreturn
declare void @llvm.lifetime.end.p0i8(i64 immarg, i8* nocapture) #1

; Function Attrs: nofree nounwind
declare noundef i32 @getc(%struct._IO_FILE* nocapture noundef) local_unnamed_addr #2

; Function Attrs: nofree nounwind
declare noundef i32 @puts(i8* nocapture noundef readonly) local_unnamed_addr #4


!llvm.module.flags = !{!0, !1, !2, !3}
!llvm.ident = !{!4}

!0 = !{i32 1, !"wchar_size", i32 4}
!1 = !{i32 7, !"PIC Level", i32 2}
!2 = !{i32 7, !"PIE Level", i32 2}
!3 = !{i32 7, !"uwtable", i32 1}
!4 = !{!"clang version 13.0.0"}
!5 = !{!6, !6, i64 0}
!6 = !{!"any pointer", !7, i64 0}
!7 = !{!"omnipotent char", !8, i64 0}
!8 = !{!"Simple C/C++ TBAA"}
!9 = !{!10, !10, i64 0}
!10 = !{!"int", !7, i64 0}
!11 = distinct !{!11, !12}
!12 = !{!"llvm.loop.mustprogress"}
!13 = !{!7, !7, i64 0}
!14 = distinct !{!14, !12}
!15 = distinct !{!15, !12}
